target datalayout = "e-m:e-p270:32:32-p271:32:32-p272:64:64-i64:64-i128:128-f80:128-n8:16:32:64-S128"
target triple = "x86_64-pc-linux-gnu"

%struct.AVFilterContext = type { ptr, ptr, ptr, ptr, ptr, i32, ptr, ptr, i32, ptr, ptr, i32, i32, ptr, ptr, ptr, ptr, i32, ptr, i32, i32 }
%struct.FilterLink = type { %struct.AVFilterLink, ptr, i64, i64, i32, i32, i64, i64, i64, i64, %struct.AVRational, ptr }
%struct.AVFilterLink = type { ptr, ptr, ptr, ptr, i32, i32, i32, i32, %struct.AVRational, i32, i32, i32, %struct.AVChannelLayout, %struct.AVRational, ptr, i32, %struct.AVFilterFormatsConfig, %struct.AVFilterFormatsConfig }
%struct.AVChannelLayout = type { i32, i32, %union.anon, ptr }
%union.anon = type { i64 }
%struct.AVFilterFormatsConfig = type { ptr, ptr, ptr, ptr, ptr }
%struct.AVRational = type { i32, i32 }
%struct.BufferSinkContext = type { ptr, i32, i32, ptr, i32, ptr, i32, ptr, i32, ptr, i32, ptr, i32, ptr, i32, ptr, i32, ptr, i32, ptr, i32, ptr, i32, ptr, i32, ptr, i32, ptr }
%struct.FilterLinkInternal = type { %struct.FilterLink, ptr, %struct.FFFrameQueue, i32, i32, i64, i32, i32, i32, i32 }
%struct.FFFrameQueue = type { ptr, i64, i64, i64, %struct.FFFrameBucket, i64, i64, i64, i64, i32 }
%struct.FFFrameBucket = type { ptr }

; Function Attrs: nounwind uwtable
define internal i32 @return_or_keep_frame(ptr noundef %0, ptr noundef %1, ptr noundef %2, i32 noundef %3) #0 {
  %5 = alloca i32, align 4
  %6 = alloca ptr, align 8
  %7 = alloca ptr, align 8
  %8 = alloca ptr, align 8
  %9 = alloca i32, align 4
  store ptr %0, ptr %6, align 8, !tbaa !38
  store ptr %1, ptr %7, align 8, !tbaa !9
  store ptr %2, ptr %8, align 8, !tbaa !9
  store i32 %3, ptr %9, align 4, !tbaa !11
  %10 = load i32, ptr %9, align 4, !tbaa !11
  %11 = and i32 %10, 1
  %12 = icmp ne i32 %11, 0
  br i1 %12, label %13, label %26

13:                                               ; preds = %4
  %14 = load ptr, ptr %8, align 8, !tbaa !9
  %15 = load ptr, ptr %6, align 8, !tbaa !38
  %16 = getelementptr inbounds nuw %struct.BufferSinkContext, ptr %15, i32 0, i32 27
  store ptr %14, ptr %16, align 8, !tbaa !42
  %17 = load ptr, ptr %7, align 8, !tbaa !9
  %18 = icmp ne ptr %17, null
  br i1 %18, label %19, label %23

19:                                               ; preds = %13
  %20 = load ptr, ptr %7, align 8, !tbaa !9
  %21 = load ptr, ptr %8, align 8, !tbaa !9
  %22 = call i32 @av_frame_ref(ptr noundef %20, ptr noundef %21)
  br label %24

23:                                               ; preds = %13
  br label %24

24:                                               ; preds = %23, %19
  %25 = phi i32 [ %22, %19 ], [ 0, %23 ]
  store i32 %25, ptr %5, align 4
  br label %31

26:                                               ; preds = %4
  %27 = load ptr, ptr %6, align 8, !tbaa !38
  %28 = getelementptr inbounds nuw %struct.BufferSinkContext, ptr %27, i32 0, i32 27
  store ptr null, ptr %28, align 8, !tbaa !42
  %29 = load ptr, ptr %7, align 8, !tbaa !9
  %30 = load ptr, ptr %8, align 8, !tbaa !9
  call void @av_frame_move_ref(ptr noundef %29, ptr noundef %30)
  call void @av_frame_free(ptr noundef %8)
  store i32 0, ptr %5, align 4
  br label %31

31:                                               ; preds = %26, %24
  %32 = load i32, ptr %5, align 4
  ret i32 %32
}

; Function Attrs: inlinehint nounwind uwtable
define internal ptr @ff_link_internal(ptr noundef %0) #1 {
  %2 = alloca ptr, align 8
  store ptr %0, ptr %2, align 8, !tbaa !25
  %3 = load ptr, ptr %2, align 8, !tbaa !25
  ret ptr %3
}

; Function Attrs: nounwind uwtable
define internal i32 @get_frame_internal(ptr noundef %0, ptr noundef %1, i32 noundef %2, i32 noundef %3) #0 {
  %5 = alloca i32, align 4
  %6 = alloca ptr, align 8
  %7 = alloca ptr, align 8
  %8 = alloca i32, align 4
  %9 = alloca i32, align 4
  %10 = alloca ptr, align 8
  %11 = alloca ptr, align 8
  %12 = alloca ptr, align 8
  %13 = alloca i32, align 4
  %14 = alloca i32, align 4
  %15 = alloca ptr, align 8
  %16 = alloca i64, align 8
  %17 = alloca i32, align 4
  store ptr %0, ptr %6, align 8, !tbaa !4
  store ptr %1, ptr %7, align 8, !tbaa !9
  store i32 %2, ptr %8, align 4, !tbaa !11
  store i32 %3, ptr %9, align 4, !tbaa !11
  call void @llvm.lifetime.start.p0(i64 8, ptr %10) #9
  %18 = load ptr, ptr %6, align 8, !tbaa !4
  %19 = getelementptr inbounds nuw %struct.AVFilterContext, ptr %18, i32 0, i32 9
  %20 = load ptr, ptr %19, align 8, !tbaa !37
  store ptr %20, ptr %10, align 8, !tbaa !38
  call void @llvm.lifetime.start.p0(i64 8, ptr %11) #9
  %21 = load ptr, ptr %6, align 8, !tbaa !4
  %22 = getelementptr inbounds nuw %struct.AVFilterContext, ptr %21, i32 0, i32 4
  %23 = load ptr, ptr %22, align 8, !tbaa !13
  %24 = getelementptr inbounds ptr, ptr %23, i64 0
  %25 = load ptr, ptr %24, align 8, !tbaa !25
  store ptr %25, ptr %11, align 8, !tbaa !25
  call void @llvm.lifetime.start.p0(i64 8, ptr %12) #9
  %26 = load ptr, ptr %11, align 8, !tbaa !25
  %27 = call ptr @ff_link_internal(ptr noundef %26)
  store ptr %27, ptr %12, align 8, !tbaa !40
  call void @llvm.lifetime.start.p0(i64 4, ptr %13) #9
  call void @llvm.lifetime.start.p0(i64 4, ptr %14) #9
  call void @llvm.lifetime.start.p0(i64 8, ptr %15) #9
  call void @llvm.lifetime.start.p0(i64 8, ptr %16) #9
  %28 = load ptr, ptr %10, align 8, !tbaa !38
  %29 = getelementptr inbounds nuw %struct.BufferSinkContext, ptr %28, i32 0, i32 27
  %30 = load ptr, ptr %29, align 8, !tbaa !42
  %31 = icmp ne ptr %30, null
  br i1 %31, label %32, label %40

32:                                               ; preds = %4
  %33 = load ptr, ptr %10, align 8, !tbaa !38
  %34 = load ptr, ptr %7, align 8, !tbaa !9
  %35 = load ptr, ptr %10, align 8, !tbaa !38
  %36 = getelementptr inbounds nuw %struct.BufferSinkContext, ptr %35, i32 0, i32 27
  %37 = load ptr, ptr %36, align 8, !tbaa !42
  %38 = load i32, ptr %8, align 4, !tbaa !11
  %39 = call i32 @return_or_keep_frame(ptr noundef %33, ptr noundef %34, ptr noundef %37, i32 noundef %38)
  store i32 %39, ptr %5, align 4
  store i32 1, ptr %17, align 4
  br label %101

40:                                               ; preds = %4
  br label %41

41:                                               ; preds = %100, %40
  br label %42

42:                                               ; preds = %41
  %43 = load i32, ptr %9, align 4, !tbaa !11
  %44 = icmp ne i32 %43, 0
  br i1 %44, label %45, label %50

45:                                               ; preds = %42
  %46 = load ptr, ptr %11, align 8, !tbaa !25
  %47 = load i32, ptr %9, align 4, !tbaa !11
  %48 = load i32, ptr %9, align 4, !tbaa !11
  %49 = call i32 @ff_inlink_consume_samples(ptr noundef %46, i32 noundef %47, i32 noundef %48, ptr noundef %15)
  br label %53

50:                                               ; preds = %42
  %51 = load ptr, ptr %11, align 8, !tbaa !25
  %52 = call i32 @ff_inlink_consume_frame(ptr noundef %51, ptr noundef %15)
  br label %53

53:                                               ; preds = %50, %45
  %54 = phi i32 [ %49, %45 ], [ %52, %50 ]
  store i32 %54, ptr %14, align 4, !tbaa !11
  %55 = load i32, ptr %14, align 4, !tbaa !11
  %56 = icmp slt i32 %55, 0
  br i1 %56, label %57, label %59

57:                                               ; preds = %53
  %58 = load i32, ptr %14, align 4, !tbaa !11
  store i32 %58, ptr %5, align 4
  store i32 1, ptr %17, align 4
  br label %101

59:                                               ; preds = %53
  %60 = load i32, ptr %14, align 4, !tbaa !11
  %61 = icmp ne i32 %60, 0
  br i1 %61, label %62, label %68

62:                                               ; preds = %59
  %63 = load ptr, ptr %10, align 8, !tbaa !38
  %64 = load ptr, ptr %7, align 8, !tbaa !9
  %65 = load ptr, ptr %15, align 8, !tbaa !9
  %66 = load i32, ptr %8, align 4, !tbaa !11
  %67 = call i32 @return_or_keep_frame(ptr noundef %63, ptr noundef %64, ptr noundef %65, i32 noundef %66)
  store i32 %67, ptr %5, align 4
  store i32 1, ptr %17, align 4
  br label %101

68:                                               ; preds = %59
  %69 = load ptr, ptr %11, align 8, !tbaa !25
  %70 = call i32 @ff_inlink_acknowledge_status(ptr noundef %69, ptr noundef %13, ptr noundef %16)
  %71 = icmp ne i32 %70, 0
  br i1 %71, label %72, label %74

72:                                               ; preds = %68
  %73 = load i32, ptr %13, align 4, !tbaa !11
  store i32 %73, ptr %5, align 4
  store i32 1, ptr %17, align 4
  br label %101

74:                                               ; preds = %68
  %75 = load i32, ptr %8, align 4, !tbaa !11
  %76 = and i32 %75, 2
  %77 = icmp ne i32 %76, 0
  br i1 %77, label %78, label %79

78:                                               ; preds = %74
  store i32 -11, ptr %5, align 4
  store i32 1, ptr %17, align 4
  br label %101

79:                                               ; preds = %74
  %80 = load ptr, ptr %12, align 8, !tbaa !40
  %81 = getelementptr inbounds nuw %struct.FilterLinkInternal, ptr %80, i32 0, i32 7
  %82 = load i32, ptr %81, align 4, !tbaa !46
  %83 = icmp ne i32 %82, 0
  br i1 %83, label %84, label %94

84:                                               ; preds = %79
  %85 = load ptr, ptr %6, align 8, !tbaa !4
  %86 = getelementptr inbounds nuw %struct.AVFilterContext, ptr %85, i32 0, i32 10
  %87 = load ptr, ptr %86, align 8, !tbaa !52
  %88 = call i32 @ff_filter_graph_run_once(ptr noundef %87)
  store i32 %88, ptr %14, align 4, !tbaa !11
  %89 = load i32, ptr %14, align 4, !tbaa !11
  %90 = icmp slt i32 %89, 0
  br i1 %90, label %91, label %93

91:                                               ; preds = %84
  %92 = load i32, ptr %14, align 4, !tbaa !11
  store i32 %92, ptr %5, align 4
  store i32 1, ptr %17, align 4
  br label %101

93:                                               ; preds = %84
  br label %96

94:                                               ; preds = %79
  %95 = load ptr, ptr %11, align 8, !tbaa !25
  call void @ff_inlink_request_frame(ptr noundef %95)
  br label %96

96:                                               ; preds = %94, %93
  br label %97

97:                                               ; preds = %96
  br label %98

98:                                               ; preds = %97
  br label %99

99:                                               ; preds = %98
  br label %100

100:                                              ; preds = %99
  br label %41

101:                                              ; preds = %91, %78, %72, %62, %57, %32
  call void @llvm.lifetime.end.p0(i64 8, ptr %16) #9
  call void @llvm.lifetime.end.p0(i64 8, ptr %15) #9
  call void @llvm.lifetime.end.p0(i64 4, ptr %14) #9
  call void @llvm.lifetime.end.p0(i64 4, ptr %13) #9
  call void @llvm.lifetime.end.p0(i64 8, ptr %12) #9
  call void @llvm.lifetime.end.p0(i64 8, ptr %11) #9
  call void @llvm.lifetime.end.p0(i64 8, ptr %10) #9
  %102 = load i32, ptr %5, align 4
  ret i32 %102
}