; Function Attrs: nounwind uwtable
define internal fastcc i32 @get_frame_internal(ptr noundef readonly captures(none) %0, ptr noundef %1, i32 noundef %2, i32 noundef %3) unnamed_addr #0 {
  %5 = alloca ptr, align 8
  %6 = alloca ptr, align 8
  %7 = alloca i32, align 4
  %8 = alloca ptr, align 8
  %9 = alloca i64, align 8
  %10 = getelementptr inbounds nuw i8, ptr %0, i64 72
  %11 = load ptr, ptr %10, align 8, !tbaa !33
  %12 = getelementptr inbounds nuw i8, ptr %0, i64 32
  %13 = load ptr, ptr %12, align 8, !tbaa !4
  %14 = load ptr, ptr %13, align 8, !tbaa !20
  call void @llvm.lifetime.start.p0(i64 4, ptr nonnull %7) #10
  call void @llvm.lifetime.start.p0(i64 8, ptr nonnull %8) #10
  call void @llvm.lifetime.start.p0(i64 8, ptr nonnull %9) #10
  %15 = getelementptr inbounds nuw i8, ptr %11, i64 208
  %16 = load ptr, ptr %15, align 8, !tbaa !34
  %.not = icmp eq ptr %16, null
  br i1 %.not, label %.preheader, label %50

.preheader:                                       ; preds = %4
  %.not30 = icmp eq i32 %3, 0
  %17 = and i32 %2, 2
  %.not33 = icmp eq i32 %17, 0
  %18 = getelementptr inbounds nuw i8, ptr %14, i64 388
  %19 = getelementptr inbounds nuw i8, ptr %0, i64 80
  br i1 %.not33, label %.preheader.split.us, label %.preheader.split

.preheader.split.us:                              ; preds = %.preheader
  br i1 %.not30, label %.preheader.split.us.split.us, label %.preheader.split.us.split

.preheader.split.us.split.us:                     ; preds = %.preheader.split.us
  %20 = call i32 @ff_inlink_consume_frame(ptr noundef %14, ptr noundef nonnull %8) #10
  %21 = icmp slt i32 %20, 0
  br i1 %21, label %.loopexit, label %.lr.ph44

.lr.ph44:                                         ; preds = %.preheader.split.us.split.us, %32
  %22 = phi i32 [ %33, %32 ], [ %20, %.preheader.split.us.split.us ]
  %.not31.us.us = icmp eq i32 %22, 0
  br i1 %.not31.us.us, label %23, label %.split.us

23:                                               ; preds = %.lr.ph44
  %24 = call i32 @ff_inlink_acknowledge_status(ptr noundef %14, ptr noundef nonnull %7, ptr noundef nonnull %9) #10
  %.not32.us.us = icmp eq i32 %24, 0
  br i1 %.not32.us.us, label %25, label %.split40.us

25:                                               ; preds = %23
  %26 = load i32, ptr %18, align 4, !tbaa !39
  %.not34.us.us = icmp eq i32 %26, 0
  br i1 %.not34.us.us, label %31, label %27

27:                                               ; preds = %25
  %28 = load ptr, ptr %19, align 8, !tbaa !45
  %29 = call i32 @ff_filter_graph_run_once(ptr noundef %28) #10
  %30 = icmp slt i32 %29, 0
  br i1 %30, label %.loopexit, label %32

31:                                               ; preds = %25
  call void @ff_inlink_request_frame(ptr noundef nonnull %14) #10
  br label %32

32:                                               ; preds = %31, %27
  %33 = call i32 @ff_inlink_consume_frame(ptr noundef nonnull %14, ptr noundef nonnull %8) #10
  %34 = icmp slt i32 %33, 0
  br i1 %34, label %.loopexit, label %.lr.ph44

.preheader.split.us.split:                        ; preds = %.preheader.split.us
  %35 = call i32 @ff_inlink_consume_samples(ptr noundef %14, i32 noundef %3, i32 noundef %3, ptr noundef nonnull %8) #10
  %36 = icmp slt i32 %35, 0
  br i1 %36, label %.loopexit, label %.lr.ph

.lr.ph:                                           ; preds = %.preheader.split.us.split, %47
  %37 = phi i32 [ %48, %47 ], [ %35, %.preheader.split.us.split ]
  %.not31.us = icmp eq i32 %37, 0
  br i1 %.not31.us, label %38, label %.split.us

38:                                               ; preds = %.lr.ph
  %39 = call i32 @ff_inlink_acknowledge_status(ptr noundef %14, ptr noundef nonnull %7, ptr noundef nonnull %9) #10
  %.not32.us = icmp eq i32 %39, 0
  br i1 %.not32.us, label %40, label %.split40.us

40:                                               ; preds = %38
  %41 = load i32, ptr %18, align 4, !tbaa !39
  %.not34.us = icmp eq i32 %41, 0
  br i1 %.not34.us, label %46, label %42

42:                                               ; preds = %40
  %43 = load ptr, ptr %19, align 8, !tbaa !45
  %44 = call i32 @ff_filter_graph_run_once(ptr noundef %43) #10
  %45 = icmp slt i32 %44, 0
  br i1 %45, label %.loopexit, label %47

46:                                               ; preds = %40
  call void @ff_inlink_request_frame(ptr noundef nonnull %14) #10
  br label %47

47:                                               ; preds = %46, %42
  %48 = call i32 @ff_inlink_consume_samples(ptr noundef nonnull %14, i32 noundef %3, i32 noundef %3, ptr noundef nonnull %8) #10
  %49 = icmp slt i32 %48, 0
  br i1 %49, label %.loopexit, label %.lr.ph

50:                                               ; preds = %4
  call void @llvm.lifetime.start.p0(i64 8, ptr nonnull %6)
  store ptr %16, ptr %6, align 8, !tbaa !46
  %51 = and i32 %2, 1
  %.not.i = icmp eq i32 %51, 0
  br i1 %.not.i, label %55, label %52

52:                                               ; preds = %50
  %.not7.i = icmp eq ptr %1, null
  br i1 %.not7.i, label %return_or_keep_frame.exit, label %53

53:                                               ; preds = %52
  %54 = tail call i32 @av_frame_ref(ptr noundef nonnull %1, ptr noundef nonnull %16) #10
  br label %return_or_keep_frame.exit

55:                                               ; preds = %50
  store ptr null, ptr %15, align 8, !tbaa !34
  tail call void @av_frame_move_ref(ptr noundef %1, ptr noundef nonnull %16) #10
  call void @av_frame_free(ptr noundef nonnull %6) #10
  br label %return_or_keep_frame.exit

return_or_keep_frame.exit:                        ; preds = %52, %53, %55
  %.0.i = phi i32 [ 0, %55 ], [ %54, %53 ], [ 0, %52 ]
  call void @llvm.lifetime.end.p0(i64 8, ptr nonnull %6)
  br label %.loopexit

.preheader.split:                                 ; preds = %.preheader
  br i1 %.not30, label %58, label %56

56:                                               ; preds = %.preheader.split
  %57 = call i32 @ff_inlink_consume_samples(ptr noundef %14, i32 noundef %3, i32 noundef %3, ptr noundef nonnull %8) #10
  br label %60

58:                                               ; preds = %.preheader.split
  %59 = call i32 @ff_inlink_consume_frame(ptr noundef %14, ptr noundef nonnull %8) #10
  br label %60

60:                                               ; preds = %58, %56
  %61 = phi i32 [ %57, %56 ], [ %59, %58 ]
  %62 = icmp slt i32 %61, 0
  br i1 %62, label %.loopexit, label %63

63:                                               ; preds = %60
  %.not31 = icmp eq i32 %61, 0
  br i1 %.not31, label %70, label %.split.us

.split.us:                                        ; preds = %.lr.ph, %.lr.ph44, %63
  %64 = load ptr, ptr %8, align 8, !tbaa !46
  call void @llvm.lifetime.start.p0(i64 8, ptr nonnull %5)
  store ptr %64, ptr %5, align 8, !tbaa !46
  %65 = and i32 %2, 1
  %.not.i35 = icmp eq i32 %65, 0
  br i1 %.not.i35, label %69, label %66

66:                                               ; preds = %.split.us
  store ptr %64, ptr %15, align 8, !tbaa !34
  %.not7.i36 = icmp eq ptr %1, null
  br i1 %.not7.i36, label %return_or_keep_frame.exit38, label %67

67:                                               ; preds = %66
  %68 = call i32 @av_frame_ref(ptr noundef nonnull %1, ptr noundef %64) #10
  br label %return_or_keep_frame.exit38

69:                                               ; preds = %.split.us
  store ptr null, ptr %15, align 8, !tbaa !34
  call void @av_frame_move_ref(ptr noundef %1, ptr noundef %64) #10
  call void @av_frame_free(ptr noundef nonnull %5) #10
  br label %return_or_keep_frame.exit38

return_or_keep_frame.exit38:                      ; preds = %66, %67, %69
  %.0.i37 = phi i32 [ 0, %69 ], [ %68, %67 ], [ 0, %66 ]
  call void @llvm.lifetime.end.p0(i64 8, ptr nonnull %5)
  br label %.loopexit

70:                                               ; preds = %63
  %71 = call i32 @ff_inlink_acknowledge_status(ptr noundef %14, ptr noundef nonnull %7, ptr noundef nonnull %9) #10
  %.not32 = icmp eq i32 %71, 0
  br i1 %.not32, label %.loopexit, label %.split40.us

.split40.us:                                      ; preds = %38, %23, %70
  %72 = load i32, ptr %7, align 4, !tbaa !47
  br label %.loopexit

.loopexit:                                        ; preds = %42, %47, %27, %32, %.preheader.split.us.split, %.preheader.split.us.split.us, %70, %60, %.split40.us, %return_or_keep_frame.exit38, %return_or_keep_frame.exit
  %.0 = phi i32 [ %.0.i, %return_or_keep_frame.exit ], [ %.0.i37, %return_or_keep_frame.exit38 ], [ %72, %.split40.us ], [ %20, %.preheader.split.us.split.us ], [ %35, %.preheader.split.us.split ], [ %61, %60 ], [ -11, %70 ], [ %29, %27 ], [ %33, %32 ], [ %44, %42 ], [ %48, %47 ]
  call void @llvm.lifetime.end.p0(i64 8, ptr nonnull %9) #10
  call void @llvm.lifetime.end.p0(i64 8, ptr nonnull %8) #10
  call void @llvm.lifetime.end.p0(i64 4, ptr nonnull %7) #10
  ret i32 %.0
}